ccopy_reg
_reconstructor
p0
(cnav_msgs.msg._MapMetaData
MapMetaData
p1
c__builtin__
object
p2
Ntp3
Rp4
(lp5
g0
(cgenpy.rostime
Time
p6
g2
Ntp7
Rp8
(lp9
I28
aI133000000
abaF0.05000000074505806
aI768
aI704
ag0
(cgeometry_msgs.msg._Pose
Pose
p10
g2
Ntp11
Rp12
(lp13
g0
(cgeometry_msgs.msg._Point
Point
p14
g2
Ntp15
Rp16
(lp17
F-15.4
aF-23.4
aF0.0
abag0
(cgeometry_msgs.msg._Quaternion
Quaternion
p18
g2
Ntp19
Rp20
(lp21
F0.0
aF0.0
aF0.0
aF1.0
ababab.